target datalayout = "e-m:e-p270:32:32-p271:32:32-p272:64:64-i64:64-i128:128-f80:128-n8:16:32:64-S128"
target triple = "x86_64-pc-linux-gnu"

%class.BoolValue = type <{ %class.Value, i8, [7 x i8] }>
%class.Value = type { ptr }

; Function Attrs: mustprogress nounwind uwtable
define linkonce_odr void @_ZN5ValueC2ERKS_(ptr noundef nonnull align 8 dereferenceable(8) %0, ptr noundef nonnull align 8 dereferenceable(8) %1) unnamed_addr #0 comdat align 2 {
  %3 = alloca ptr, align 8
  %4 = alloca ptr, align 8
  store ptr %0, ptr %3, align 8
  store ptr %1, ptr %4, align 8
  %5 = load ptr, ptr %3, align 8
  store ptr getelementptr inbounds ({ [25 x ptr] }, ptr @_ZTV5Value, i32 0, i32 0, i32 2), ptr %5, align 8
  ret void
}

; Function Attrs: mustprogress nounwind uwtable
define linkonce_odr void @_ZN9BoolValueC2ERKS_(ptr noundef nonnull align 8 dereferenceable(9) %0, ptr noundef nonnull align 8 dereferenceable(9) %1) unnamed_addr #0 comdat align 2 {
  %3 = alloca ptr, align 8
  %4 = alloca ptr, align 8
  store ptr %0, ptr %3, align 8
  store ptr %1, ptr %4, align 8
  %5 = load ptr, ptr %3, align 8
  %6 = load ptr, ptr %4, align 8
  call void @_ZN5ValueC2ERKS_(ptr noundef nonnull align 8 dereferenceable(8) %5, ptr noundef nonnull align 8 dereferenceable(8) %6) #5
  store ptr getelementptr inbounds ({ [25 x ptr] }, ptr @_ZTV9BoolValue, i32 0, i32 0, i32 2), ptr %5, align 8
  %7 = getelementptr inbounds %class.BoolValue, ptr %5, i32 0, i32 1
  %8 = load ptr, ptr %4, align 8
  %9 = getelementptr inbounds %class.BoolValue, ptr %8, i32 0, i32 1
  %10 = load i8, ptr %9, align 8
  %11 = trunc i8 %10 to i1
  %12 = zext i1 %11 to i8
  store i8 %12, ptr %7, align 8
  ret void
}

; Function Attrs: mustprogress uwtable
define noundef ptr @_ZNK9BoolValue5cloneEv(ptr noundef nonnull align 8 dereferenceable(9) %0) unnamed_addr #1 align 2 {
  %2 = alloca ptr, align 8
  store ptr %0, ptr %2, align 8
  %3 = load ptr, ptr %2, align 8
  %4 = call noalias noundef nonnull ptr @_Znwm(i64 noundef 16) #14
  call void @_ZN9BoolValueC2ERKS_(ptr noundef nonnull align 8 dereferenceable(9) %4, ptr noundef nonnull align 8 dereferenceable(9) %3) #5
  ret ptr %4
}