; Function Attrs: mustprogress uwtable
define noalias noundef nonnull ptr @_ZNK9BoolValue5cloneEv(ptr nocapture noundef nonnull readonly align 8 dereferenceable(9) %0) unnamed_addr #2 align 2 {
  %2 = tail call noalias noundef nonnull dereferenceable(16) ptr @_Znwm(i64 noundef 16) #13
  store ptr getelementptr inbounds ({ [25 x ptr] }, ptr @_ZTV9BoolValue, i64 0, i32 0, i64 2), ptr %2, align 8
  %3 = getelementptr inbounds i8, ptr %2, i64 8
  %4 = getelementptr inbounds i8, ptr %0, i64 8
  %5 = load i8, ptr %4, align 8
  %6 = and i8 %5, 1
  store i8 %6, ptr %3, align 8
  ret ptr %2
}